target datalayout = "e-m:e-p270:32:32-p271:32:32-p272:64:64-i64:64-i128:128-f80:128-n8:16:32:64-S128"
target triple = "x86_64-pc-linux-gnu"

%struct.stat = type { i64, i64, i64, i32, i32, i32, i32, i64, i64, i64, i64, %struct.timespec, %struct.timespec, %struct.timespec, [3 x i64] }
%struct.timespec = type { i64, i64 }

@show_only = internal global i32 0, align 4
@verbose = internal global i32 0, align 4
@expire = internal global i64 0, align 8
@the_repository = external global ptr, align 8
@.str.16 = private unnamed_addr constant [20 x i8] c"Could not stat '%s'\00", align 1
@.str.17 = private unnamed_addr constant [7 x i8] c"%s %s\0A\00", align 1
@.str.18 = private unnamed_addr constant [8 x i8] c"unknown\00", align 1

; Function Attrs: inlinehint nounwind uwtable
define internal i32 @const_error() #5 {
  ret i32 -1
}

; Function Attrs: nounwind uwtable
define internal i32 @is_object_reachable(ptr noundef %0, ptr noundef %1) #0 {
  %3 = alloca ptr, align 8
  %4 = alloca ptr, align 8
  %5 = alloca ptr, align 8
  store ptr %0, ptr %3, align 8, !tbaa !35
  store ptr %1, ptr %4, align 8, !tbaa !38
  call void @llvm.lifetime.start.p0(i64 8, ptr %5) #10
  %6 = load ptr, ptr %4, align 8, !tbaa !38
  call void @perform_reachability_traversal(ptr noundef %6)
  %7 = load ptr, ptr @the_repository, align 8, !tbaa !13
  %8 = load ptr, ptr %3, align 8, !tbaa !35
  %9 = call ptr @lookup_object(ptr noundef %7, ptr noundef %8)
  store ptr %9, ptr %5, align 8, !tbaa !30
  %10 = load ptr, ptr %5, align 8, !tbaa !30
  %11 = icmp ne ptr %10, null
  br i1 %11, label %12, label %18

12:                                               ; preds = %2
  %13 = load ptr, ptr %5, align 8, !tbaa !30
  %14 = load i32, ptr %13, align 4
  %15 = lshr i32 %14, 4
  %16 = and i32 %15, 1
  %17 = icmp ne i32 %16, 0
  br label %18

18:                                               ; preds = %12, %2
  %19 = phi i1 [ false, %2 ], [ %17, %12 ]
  %20 = zext i1 %19 to i32
  call void @llvm.lifetime.end.p0(i64 8, ptr %5) #10
  ret i32 %20
}

; Function Attrs: nounwind uwtable
define internal i32 @prune_object(ptr noundef %0, ptr noundef %1, ptr noundef %2) #0 {
  %4 = alloca i32, align 4
  %5 = alloca ptr, align 8
  %6 = alloca ptr, align 8
  %7 = alloca ptr, align 8
  %8 = alloca ptr, align 8
  %9 = alloca %struct.stat, align 8
  %10 = alloca i32, align 4
  %11 = alloca i32, align 4
  store ptr %0, ptr %5, align 8, !tbaa !35
  store ptr %1, ptr %6, align 8, !tbaa !11
  store ptr %2, ptr %7, align 8, !tbaa !37
  call void @llvm.lifetime.start.p0(i64 8, ptr %8) #10
  %12 = load ptr, ptr %7, align 8, !tbaa !37
  store ptr %12, ptr %8, align 8, !tbaa !38
  call void @llvm.lifetime.start.p0(i64 144, ptr %9) #10
  %13 = load ptr, ptr %5, align 8, !tbaa !35
  %14 = load ptr, ptr %8, align 8, !tbaa !38
  %15 = call i32 @is_object_reachable(ptr noundef %13, ptr noundef %14)
  %16 = icmp ne i32 %15, 0
  br i1 %16, label %17, label %18

17:                                               ; preds = %3
  store i32 0, ptr %4, align 4
  store i32 1, ptr %10, align 4
  br label %61

18:                                               ; preds = %3
  %19 = load ptr, ptr %6, align 8, !tbaa !11
  %20 = call i32 @lstat64(ptr noundef %19, ptr noundef %9) #10
  %21 = icmp ne i32 %20, 0
  br i1 %21, label %22, label %26

22:                                               ; preds = %18
  %23 = load ptr, ptr %6, align 8, !tbaa !11
  %24 = call i32 (ptr, ...) @error(ptr noundef @.str.16, ptr noundef %23)
  %25 = call i32 @const_error()
  store i32 0, ptr %4, align 4
  store i32 1, ptr %10, align 4
  br label %61

26:                                               ; preds = %18
  %27 = getelementptr inbounds nuw %struct.stat, ptr %9, i32 0, i32 12
  %28 = getelementptr inbounds nuw %struct.timespec, ptr %27, i32 0, i32 0
  %29 = load i64, ptr %28, align 8, !tbaa !40
  %30 = load i64, ptr @expire, align 8, !tbaa !29
  %31 = icmp ugt i64 %29, %30
  br i1 %31, label %32, label %33

32:                                               ; preds = %26
  store i32 0, ptr %4, align 4
  store i32 1, ptr %10, align 4
  br label %61

33:                                               ; preds = %26
  %34 = load i32, ptr @show_only, align 4, !tbaa !4
  %35 = icmp ne i32 %34, 0
  br i1 %35, label %39, label %36

36:                                               ; preds = %33
  %37 = load i32, ptr @verbose, align 4, !tbaa !4
  %38 = icmp ne i32 %37, 0
  br i1 %38, label %39, label %54

39:                                               ; preds = %36, %33
  call void @llvm.lifetime.start.p0(i64 4, ptr %11) #10
  %40 = load ptr, ptr @the_repository, align 8, !tbaa !13
  %41 = load ptr, ptr %5, align 8, !tbaa !35
  %42 = call i32 @oid_object_info(ptr noundef %40, ptr noundef %41, ptr noundef null)
  store i32 %42, ptr %11, align 4, !tbaa !4
  %43 = load ptr, ptr %5, align 8, !tbaa !35
  %44 = call ptr @oid_to_hex(ptr noundef %43)
  %45 = load i32, ptr %11, align 4, !tbaa !4
  %46 = icmp sgt i32 %45, 0
  br i1 %46, label %47, label %50

47:                                               ; preds = %39
  %48 = load i32, ptr %11, align 4, !tbaa !4
  %49 = call ptr @type_name(i32 noundef %48)
  br label %51

50:                                               ; preds = %39
  br label %51

51:                                               ; preds = %50, %47
  %52 = phi ptr [ %49, %47 ], [ @.str.18, %50 ]
  %53 = call i32 (ptr, ...) @printf(ptr noundef @.str.17, ptr noundef %44, ptr noundef %52)
  call void @llvm.lifetime.end.p0(i64 4, ptr %11) #10
  br label %54

54:                                               ; preds = %51, %36
  %55 = load i32, ptr @show_only, align 4, !tbaa !4
  %56 = icmp ne i32 %55, 0
  br i1 %56, label %60, label %57

57:                                               ; preds = %54
  %58 = load ptr, ptr %6, align 8, !tbaa !11
  %59 = call i32 @unlink_or_warn(ptr noundef %58)
  br label %60

60:                                               ; preds = %57, %54
  store i32 0, ptr %4, align 4
  store i32 1, ptr %10, align 4
  br label %61

61:                                               ; preds = %60, %32, %22, %17
  call void @llvm.lifetime.end.p0(i64 144, ptr %9) #10
  call void @llvm.lifetime.end.p0(i64 8, ptr %8) #10
  %62 = load i32, ptr %4, align 4
  ret i32 %62
}