; Function Attrs: nounwind uwtable
define internal noundef i32 @prune_object(ptr noundef %0, ptr noundef %1, ptr noundef %2) #0 {
  %4 = alloca %struct.stat, align 8
  call void @llvm.lifetime.start.p0(i64 144, ptr nonnull %4) #12
  tail call fastcc void @perform_reachability_traversal(ptr noundef %2)
  %5 = load ptr, ptr @the_repository, align 8, !tbaa !22
  %6 = tail call ptr @lookup_object(ptr noundef %5, ptr noundef %0) #12
  %.not.i = icmp eq ptr %6, null
  br i1 %.not.i, label %is_object_reachable.exit.thread, label %is_object_reachable.exit

is_object_reachable.exit:                         ; preds = %3
  %7 = load i32, ptr %6, align 4
  %8 = and i32 %7, 16
  %.not = icmp eq i32 %8, 0
  br i1 %.not, label %is_object_reachable.exit.thread, label %33

is_object_reachable.exit.thread:                  ; preds = %3, %is_object_reachable.exit
  %9 = call i32 @lstat64(ptr noundef %1, ptr noundef nonnull %4) #12
  %.not11 = icmp eq i32 %9, 0
  br i1 %.not11, label %12, label %10

10:                                               ; preds = %is_object_reachable.exit.thread
  %11 = tail call i32 (ptr, ...) @error(ptr noundef nonnull @.str.16, ptr noundef %1) #12
  br label %33

12:                                               ; preds = %is_object_reachable.exit.thread
  %13 = getelementptr inbounds nuw i8, ptr %4, i64 88
  %14 = load i64, ptr %13, align 8, !tbaa !28
  %15 = load i64, ptr @expire, align 8, !tbaa !21
  %16 = icmp ugt i64 %14, %15
  br i1 %16, label %33, label %17

17:                                               ; preds = %12
  %18 = load i32, ptr @show_only, align 4, !tbaa !4
  %19 = icmp ne i32 %18, 0
  %20 = load i32, ptr @verbose, align 4
  %21 = icmp ne i32 %20, 0
  %or.cond = select i1 %19, i1 true, i1 %21
  br i1 %or.cond, label %22, label %.thread

22:                                               ; preds = %17
  %23 = load ptr, ptr @the_repository, align 8, !tbaa !22
  %24 = tail call i32 @oid_object_info(ptr noundef %23, ptr noundef %0, ptr noundef null) #12
  %25 = tail call ptr @oid_to_hex(ptr noundef %0) #12
  %26 = icmp sgt i32 %24, 0
  br i1 %26, label %27, label %29

27:                                               ; preds = %22
  %28 = tail call ptr @type_name(i32 noundef %24) #12
  br label %29

29:                                               ; preds = %27, %22
  %30 = phi ptr [ %28, %27 ], [ @.str.18, %22 ]
  %31 = tail call i32 (ptr, ...) @printf(ptr noundef nonnull dereferenceable(1) @.str.17, ptr noundef %25, ptr noundef %30)
  %.pr = load i32, ptr @show_only, align 4, !tbaa !4
  %.not12 = icmp eq i32 %.pr, 0
  br i1 %.not12, label %.thread, label %33

.thread:                                          ; preds = %17, %29
  %32 = tail call i32 @unlink_or_warn(ptr noundef %1) #12
  br label %33

33:                                               ; preds = %29, %.thread, %12, %is_object_reachable.exit, %10
  call void @llvm.lifetime.end.p0(i64 144, ptr nonnull %4) #12
  ret i32 0
}